target datalayout = "e-m:e-p270:32:32-p271:32:32-p272:64:64-i64:64-i128:128-f80:128-n8:16:32:64-S128"
target triple = "x86_64-pc-linux-gnu"

%struct.ZSTD_frameParameters = type { i32, i32, i32 }

@__const.ZSTD_compress_usingCDict.fParams = private unnamed_addr constant %struct.ZSTD_frameParameters { i32 1, i32 0, i32 0 }, align 4

; Function Attrs: nounwind uwtable
define internal i32 @ERR_isError(i64 noundef %0) #0 {
  %2 = alloca i64, align 8
  store i64 %0, ptr %2, align 8
  %3 = load i64, ptr %2, align 8
  %4 = icmp ugt i64 %3, -120
  %5 = zext i1 %4 to i32
  ret i32 %5
}

; Function Attrs: nounwind uwtable
define internal i64 @ZSTD_compress_usingCDict_internal(ptr noundef %0, ptr noundef %1, i64 noundef %2, ptr noundef %3, i64 noundef %4, ptr noundef %5, ptr noundef byval(%struct.ZSTD_frameParameters) align 8 %6) #0 {
  %8 = alloca i64, align 8
  %9 = alloca ptr, align 8
  %10 = alloca ptr, align 8
  %11 = alloca i64, align 8
  %12 = alloca ptr, align 8
  %13 = alloca i64, align 8
  %14 = alloca ptr, align 8
  %15 = alloca i64, align 8
  %16 = alloca { i64, i32 }, align 8
  store ptr %0, ptr %9, align 8
  store ptr %1, ptr %10, align 8
  store i64 %2, ptr %11, align 8
  store ptr %3, ptr %12, align 8
  store i64 %4, ptr %13, align 8
  store ptr %5, ptr %14, align 8
  br label %17

17:                                               ; preds = %7
  %18 = load ptr, ptr %9, align 8
  %19 = load ptr, ptr %14, align 8
  %20 = load i64, ptr %13, align 8
  call void @llvm.memcpy.p0.p0.i64(ptr align 8 %16, ptr align 8 %6, i64 12, i1 false)
  %21 = getelementptr inbounds { i64, i32 }, ptr %16, i32 0, i32 0
  %22 = load i64, ptr %21, align 8
  %23 = getelementptr inbounds { i64, i32 }, ptr %16, i32 0, i32 1
  %24 = load i32, ptr %23, align 8
  %25 = call i64 @ZSTD_compressBegin_usingCDict_internal(ptr noundef %18, ptr noundef %19, i64 %22, i32 %24, i64 noundef %20)
  store i64 %25, ptr %15, align 8
  %26 = load i64, ptr %15, align 8
  %27 = call i32 @ERR_isError(i64 noundef %26)
  %28 = icmp ne i32 %27, 0
  br i1 %28, label %29, label %31

29:                                               ; preds = %17
  %30 = load i64, ptr %15, align 8
  store i64 %30, ptr %8, align 8
  br label %39

31:                                               ; preds = %17
  br label %32

32:                                               ; preds = %31
  %33 = load ptr, ptr %9, align 8
  %34 = load ptr, ptr %10, align 8
  %35 = load i64, ptr %11, align 8
  %36 = load ptr, ptr %12, align 8
  %37 = load i64, ptr %13, align 8
  %38 = call i64 @ZSTD_compressEnd_public(ptr noundef %33, ptr noundef %34, i64 noundef %35, ptr noundef %36, i64 noundef %37)
  store i64 %38, ptr %8, align 8
  br label %39

39:                                               ; preds = %32, %29
  %40 = load i64, ptr %8, align 8
  ret i64 %40
}

; Function Attrs: nounwind uwtable
define dso_local i64 @ZSTD_compress_usingCDict(ptr noundef %0, ptr noundef %1, i64 noundef %2, ptr noundef %3, i64 noundef %4, ptr noundef %5) #0 {
  %7 = alloca ptr, align 8
  %8 = alloca ptr, align 8
  %9 = alloca i64, align 8
  %10 = alloca ptr, align 8
  %11 = alloca i64, align 8
  %12 = alloca ptr, align 8
  %13 = alloca %struct.ZSTD_frameParameters, align 8
  store ptr %0, ptr %7, align 8
  store ptr %1, ptr %8, align 8
  store i64 %2, ptr %9, align 8
  store ptr %3, ptr %10, align 8
  store i64 %4, ptr %11, align 8
  store ptr %5, ptr %12, align 8
  call void @llvm.memcpy.p0.p0.i64(ptr align 4 %13, ptr align 4 @__const.ZSTD_compress_usingCDict.fParams, i64 12, i1 false)
  %14 = load ptr, ptr %7, align 8
  %15 = load ptr, ptr %8, align 8
  %16 = load i64, ptr %9, align 8
  %17 = load ptr, ptr %10, align 8
  %18 = load i64, ptr %11, align 8
  %19 = load ptr, ptr %12, align 8
  %20 = call i64 @ZSTD_compress_usingCDict_internal(ptr noundef %14, ptr noundef %15, i64 noundef %16, ptr noundef %17, i64 noundef %18, ptr noundef %19, ptr noundef byval(%struct.ZSTD_frameParameters) align 8 %13)
  ret i64 %20
}