; Function Attrs: nounwind uwtable
define dso_local i64 @ZSTD_compress_usingCDict(ptr noundef %0, ptr noundef %1, i64 noundef %2, ptr noundef %3, i64 noundef %4, ptr noundef %5) local_unnamed_addr #1 {
  %7 = tail call fastcc i64 @ZSTD_compressBegin_usingCDict_internal(ptr noundef %0, ptr noundef %5, i64 1, i32 0, i64 noundef %4)
  %8 = icmp ult i64 %7, -119
  br i1 %8, label %9, label %ZSTD_compress_usingCDict_internal.exit

9:                                                ; preds = %6
  %10 = tail call i64 @ZSTD_compressEnd_public(ptr noundef %0, ptr noundef %1, i64 noundef %2, ptr noundef %3, i64 noundef %4)
  br label %ZSTD_compress_usingCDict_internal.exit

ZSTD_compress_usingCDict_internal.exit:           ; preds = %6, %9
  %.0.i = phi i64 [ %10, %9 ], [ %7, %6 ]
  ret i64 %.0.i
}